; Function Attrs: nounwind uwtable
define i32 @cli_bcapi_map_getvaluesize(ptr nocapture noundef readonly %0, i32 noundef %1) local_unnamed_addr #1 {
  %3 = icmp slt i32 %1, 0
  br i1 %3, label %get_hashtab.exit.thread, label %4

4:                                                ; preds = %2
  %5 = getelementptr inbounds i8, ptr %0, i64 1280
  %6 = load i32, ptr %5, align 8
  %.not.i = icmp ugt i32 %6, %1
  br i1 %.not.i, label %7, label %get_hashtab.exit.thread

7:                                                ; preds = %4
  %8 = getelementptr inbounds i8, ptr %0, i64 1272
  %9 = load ptr, ptr %8, align 8
  %.not8.i = icmp eq ptr %9, null
  br i1 %.not8.i, label %get_hashtab.exit.thread, label %get_hashtab.exit

get_hashtab.exit:                                 ; preds = %7
  %10 = zext nneg i32 %1 to i64
  %11 = getelementptr inbounds %struct.cli_map, ptr %9, i64 %10
  %12 = tail call i32 @cli_map_getvalue_size(ptr noundef nonnull %11) #29
  br label %get_hashtab.exit.thread

get_hashtab.exit.thread:                          ; preds = %2, %4, %7, %get_hashtab.exit
  %.0 = phi i32 [ %12, %get_hashtab.exit ], [ -1, %7 ], [ -1, %4 ], [ -1, %2 ]
  ret i32 %.0
}